target datalayout = "e-m:e-p270:32:32-p271:32:32-p272:64:64-i64:64-i128:128-f80:128-n8:16:32:64-S128"
target triple = "x86_64-unknown-linux-gnu"

%class.aiVector3t = type { double, double, double }

; Function Attrs: mustprogress nounwind uwtable
define linkonce_odr hidden void @_ZN10aiVector3tIdEC2Eddd(ptr noundef nonnull align 8 dereferenceable(24) %this, double noundef %_x, double noundef %_y, double noundef %_z) unnamed_addr #0 comdat align 2 {
entry:
  %this.addr = alloca ptr, align 8
  %_x.addr = alloca double, align 8
  %_y.addr = alloca double, align 8
  %_z.addr = alloca double, align 8
  store ptr %this, ptr %this.addr, align 8
  store double %_x, ptr %_x.addr, align 8
  store double %_y, ptr %_y.addr, align 8
  store double %_z, ptr %_z.addr, align 8
  %this1 = load ptr, ptr %this.addr, align 8
  %x = getelementptr inbounds %class.aiVector3t, ptr %this1, i32 0, i32 0
  %0 = load double, ptr %_x.addr, align 8
  store double %0, ptr %x, align 8
  %y = getelementptr inbounds %class.aiVector3t, ptr %this1, i32 0, i32 1
  %1 = load double, ptr %_y.addr, align 8
  store double %1, ptr %y, align 8
  %z = getelementptr inbounds %class.aiVector3t, ptr %this1, i32 0, i32 2
  %2 = load double, ptr %_z.addr, align 8
  store double %2, ptr %z, align 8
  ret void
}

; Function Attrs: mustprogress uwtable
define linkonce_odr hidden void @_ZplIdE10aiVector3tIT_ERKS2_S4_(ptr noalias sret(%class.aiVector3t) align 8 %agg.result, ptr noundef nonnull align 8 dereferenceable(24) %v1, ptr noundef nonnull align 8 dereferenceable(24) %v2) #2 comdat {
entry:
  %v1.addr = alloca ptr, align 8
  %v2.addr = alloca ptr, align 8
  store ptr %v1, ptr %v1.addr, align 8
  store ptr %v2, ptr %v2.addr, align 8
  %0 = load ptr, ptr %v1.addr, align 8
  %x = getelementptr inbounds %class.aiVector3t, ptr %0, i32 0, i32 0
  %1 = load double, ptr %x, align 8
  %2 = load ptr, ptr %v2.addr, align 8
  %x1 = getelementptr inbounds %class.aiVector3t, ptr %2, i32 0, i32 0
  %3 = load double, ptr %x1, align 8
  %add = fadd double %1, %3
  %4 = load ptr, ptr %v1.addr, align 8
  %y = getelementptr inbounds %class.aiVector3t, ptr %4, i32 0, i32 1
  %5 = load double, ptr %y, align 8
  %6 = load ptr, ptr %v2.addr, align 8
  %y2 = getelementptr inbounds %class.aiVector3t, ptr %6, i32 0, i32 1
  %7 = load double, ptr %y2, align 8
  %add3 = fadd double %5, %7
  %8 = load ptr, ptr %v1.addr, align 8
  %z = getelementptr inbounds %class.aiVector3t, ptr %8, i32 0, i32 2
  %9 = load double, ptr %z, align 8
  %10 = load ptr, ptr %v2.addr, align 8
  %z4 = getelementptr inbounds %class.aiVector3t, ptr %10, i32 0, i32 2
  %11 = load double, ptr %z4, align 8
  %add5 = fadd double %9, %11
  call void @_ZN10aiVector3tIdEC2Eddd(ptr noundef nonnull align 8 dereferenceable(24) %agg.result, double noundef %add, double noundef %add3, double noundef %add5)
  ret void
}

; Function Attrs: mustprogress uwtable
define linkonce_odr hidden void @_ZmlIdE10aiVector3tIT_ES1_RKS2_(ptr noalias sret(%class.aiVector3t) align 8 %agg.result, double noundef %f, ptr noundef nonnull align 8 dereferenceable(24) %v) #2 comdat {
entry:
  %f.addr = alloca double, align 8
  %v.addr = alloca ptr, align 8
  store double %f, ptr %f.addr, align 8
  store ptr %v, ptr %v.addr, align 8
  %0 = load double, ptr %f.addr, align 8
  %1 = load ptr, ptr %v.addr, align 8
  %x = getelementptr inbounds %class.aiVector3t, ptr %1, i32 0, i32 0
  %2 = load double, ptr %x, align 8
  %mul = fmul double %0, %2
  %3 = load double, ptr %f.addr, align 8
  %4 = load ptr, ptr %v.addr, align 8
  %y = getelementptr inbounds %class.aiVector3t, ptr %4, i32 0, i32 1
  %5 = load double, ptr %y, align 8
  %mul1 = fmul double %3, %5
  %6 = load double, ptr %f.addr, align 8
  %7 = load ptr, ptr %v.addr, align 8
  %z = getelementptr inbounds %class.aiVector3t, ptr %7, i32 0, i32 2
  %8 = load double, ptr %z, align 8
  %mul2 = fmul double %6, %8
  call void @_ZN10aiVector3tIdEC2Eddd(ptr noundef nonnull align 8 dereferenceable(24) %agg.result, double noundef %mul, double noundef %mul1, double noundef %mul2)
  ret void
}

; Function Attrs: mustprogress nounwind uwtable
define linkonce_odr noundef double @_ZSt3absd(double noundef %__x) #0 comdat {
entry:
  %__x.addr = alloca double, align 8
  store double %__x, ptr %__x.addr, align 8
  %0 = load double, ptr %__x.addr, align 8
  %1 = call double @llvm.fabs.f64(double %0)
  ret double %1
}

; Function Attrs: mustprogress nounwind uwtable
define linkonce_odr hidden noundef double @_ZmlIdET_RK10aiVector3tIS0_ES4_(ptr noundef nonnull align 8 dereferenceable(24) %v1, ptr noundef nonnull align 8 dereferenceable(24) %v2) #0 comdat {
entry:
  %v1.addr = alloca ptr, align 8
  %v2.addr = alloca ptr, align 8
  store ptr %v1, ptr %v1.addr, align 8
  store ptr %v2, ptr %v2.addr, align 8
  %0 = load ptr, ptr %v1.addr, align 8
  %x = getelementptr inbounds %class.aiVector3t, ptr %0, i32 0, i32 0
  %1 = load double, ptr %x, align 8
  %2 = load ptr, ptr %v2.addr, align 8
  %x1 = getelementptr inbounds %class.aiVector3t, ptr %2, i32 0, i32 0
  %3 = load double, ptr %x1, align 8
  %4 = load ptr, ptr %v1.addr, align 8
  %y = getelementptr inbounds %class.aiVector3t, ptr %4, i32 0, i32 1
  %5 = load double, ptr %y, align 8
  %6 = load ptr, ptr %v2.addr, align 8
  %y2 = getelementptr inbounds %class.aiVector3t, ptr %6, i32 0, i32 1
  %7 = load double, ptr %y2, align 8
  %mul3 = fmul double %5, %7
  %8 = call double @llvm.fmuladd.f64(double %1, double %3, double %mul3)
  %9 = load ptr, ptr %v1.addr, align 8
  %z = getelementptr inbounds %class.aiVector3t, ptr %9, i32 0, i32 2
  %10 = load double, ptr %z, align 8
  %11 = load ptr, ptr %v2.addr, align 8
  %z4 = getelementptr inbounds %class.aiVector3t, ptr %11, i32 0, i32 2
  %12 = load double, ptr %z4, align 8
  %13 = call double @llvm.fmuladd.f64(double %10, double %12, double %8)
  ret double %13
}

; Function Attrs: mustprogress uwtable
define linkonce_odr hidden void @_ZmiIdE10aiVector3tIT_ERKS2_S4_(ptr noalias sret(%class.aiVector3t) align 8 %agg.result, ptr noundef nonnull align 8 dereferenceable(24) %v1, ptr noundef nonnull align 8 dereferenceable(24) %v2) #2 comdat {
entry:
  %v1.addr = alloca ptr, align 8
  %v2.addr = alloca ptr, align 8
  store ptr %v1, ptr %v1.addr, align 8
  store ptr %v2, ptr %v2.addr, align 8
  %0 = load ptr, ptr %v1.addr, align 8
  %x = getelementptr inbounds %class.aiVector3t, ptr %0, i32 0, i32 0
  %1 = load double, ptr %x, align 8
  %2 = load ptr, ptr %v2.addr, align 8
  %x1 = getelementptr inbounds %class.aiVector3t, ptr %2, i32 0, i32 0
  %3 = load double, ptr %x1, align 8
  %sub = fsub double %1, %3
  %4 = load ptr, ptr %v1.addr, align 8
  %y = getelementptr inbounds %class.aiVector3t, ptr %4, i32 0, i32 1
  %5 = load double, ptr %y, align 8
  %6 = load ptr, ptr %v2.addr, align 8
  %y2 = getelementptr inbounds %class.aiVector3t, ptr %6, i32 0, i32 1
  %7 = load double, ptr %y2, align 8
  %sub3 = fsub double %5, %7
  %8 = load ptr, ptr %v1.addr, align 8
  %z = getelementptr inbounds %class.aiVector3t, ptr %8, i32 0, i32 2
  %9 = load double, ptr %z, align 8
  %10 = load ptr, ptr %v2.addr, align 8
  %z4 = getelementptr inbounds %class.aiVector3t, ptr %10, i32 0, i32 2
  %11 = load double, ptr %z4, align 8
  %sub5 = fsub double %9, %11
  call void @_ZN10aiVector3tIdEC2Eddd(ptr noundef nonnull align 8 dereferenceable(24) %agg.result, double noundef %sub, double noundef %sub3, double noundef %sub5)
  ret void
}

; Function Attrs: mustprogress uwtable
define hidden noundef zeroext i1 @_ZN6Assimp3IFC21IntersectSegmentPlaneERK10aiVector3tIdES4_S4_S4_bRS2_(ptr noundef nonnull align 8 dereferenceable(24) %p, ptr noundef nonnull align 8 dereferenceable(24) %n, ptr noundef nonnull align 8 dereferenceable(24) %e0, ptr noundef nonnull align 8 dereferenceable(24) %e1, i1 noundef zeroext %assumeStartOnWhiteSide, ptr noundef nonnull align 8 dereferenceable(24) %out) #2 {
entry:
  %retval = alloca i1, align 1
  %p.addr = alloca ptr, align 8
  %n.addr = alloca ptr, align 8
  %e0.addr = alloca ptr, align 8
  %e1.addr = alloca ptr, align 8
  %assumeStartOnWhiteSide.addr = alloca i8, align 1
  %out.addr = alloca ptr, align 8
  %pdelta = alloca %class.aiVector3t, align 8
  %seg = alloca %class.aiVector3t, align 8
  %dotOne = alloca double, align 8
  %dotTwo = alloca double, align 8
  %t = alloca double, align 8
  %ref.tmp = alloca %class.aiVector3t, align 8
  %ref.tmp23 = alloca %class.aiVector3t, align 8
  store ptr %p, ptr %p.addr, align 8
  store ptr %n, ptr %n.addr, align 8
  store ptr %e0, ptr %e0.addr, align 8
  store ptr %e1, ptr %e1.addr, align 8
  %frombool = zext i1 %assumeStartOnWhiteSide to i8
  store i8 %frombool, ptr %assumeStartOnWhiteSide.addr, align 1
  store ptr %out, ptr %out.addr, align 8
  %0 = load ptr, ptr %e0.addr, align 8
  %1 = load ptr, ptr %p.addr, align 8
  call void @_ZmiIdE10aiVector3tIT_ERKS2_S4_(ptr sret(%class.aiVector3t) align 8 %pdelta, ptr noundef nonnull align 8 dereferenceable(24) %0, ptr noundef nonnull align 8 dereferenceable(24) %1)
  %2 = load ptr, ptr %e1.addr, align 8
  %3 = load ptr, ptr %e0.addr, align 8
  call void @_ZmiIdE10aiVector3tIT_ERKS2_S4_(ptr sret(%class.aiVector3t) align 8 %seg, ptr noundef nonnull align 8 dereferenceable(24) %2, ptr noundef nonnull align 8 dereferenceable(24) %3)
  %4 = load ptr, ptr %n.addr, align 8
  %call = call noundef double @_ZmlIdET_RK10aiVector3tIS0_ES4_(ptr noundef nonnull align 8 dereferenceable(24) %4, ptr noundef nonnull align 8 dereferenceable(24) %seg)
  store double %call, ptr %dotOne, align 8
  %5 = load ptr, ptr %n.addr, align 8
  %call1 = call noundef double @_ZmlIdET_RK10aiVector3tIS0_ES4_(ptr noundef nonnull align 8 dereferenceable(24) %5, ptr noundef nonnull align 8 dereferenceable(24) %pdelta)
  %fneg = fneg double %call1
  store double %fneg, ptr %dotTwo, align 8
  %6 = load double, ptr %dotOne, align 8
  %7 = load double, ptr %dotTwo, align 8
  %add = fadd double %6, %7
  %call2 = call noundef double @_ZSt3absd(double noundef %add)
  %cmp = fcmp olt double %call2, 0x3EB0C6F7A0000000
  br i1 %cmp, label %if.then, label %if.end

if.then:                                          ; preds = %entry
  store i1 false, ptr %retval, align 1
  br label %return

if.end:                                           ; preds = %entry
  %8 = load double, ptr %dotTwo, align 8
  %call3 = call noundef double @_ZSt3absd(double noundef %8)
  %cmp4 = fcmp olt double %call3, 0x3EB0C6F7A0000000
  br i1 %cmp4, label %if.then5, label %if.end13

if.then5:                                         ; preds = %if.end
  %9 = load i8, ptr %assumeStartOnWhiteSide.addr, align 1
  %tobool = trunc i8 %9 to i1
  br i1 %tobool, label %land.lhs.true, label %lor.lhs.false

land.lhs.true:                                    ; preds = %if.then5
  %10 = load double, ptr %dotOne, align 8
  %11 = load double, ptr %dotTwo, align 8
  %add6 = fadd double %10, %11
  %cmp7 = fcmp olt double %add6, 0x3EB0C6F7A0000000
  br i1 %cmp7, label %if.then12, label %lor.lhs.false

lor.lhs.false:                                    ; preds = %land.lhs.true, %if.then5
  %12 = load i8, ptr %assumeStartOnWhiteSide.addr, align 1
  %tobool8 = trunc i8 %12 to i1
  br i1 %tobool8, label %if.else, label %land.lhs.true9

land.lhs.true9:                                   ; preds = %lor.lhs.false
  %13 = load double, ptr %dotOne, align 8
  %14 = load double, ptr %dotTwo, align 8
  %add10 = fadd double %13, %14
  %cmp11 = fcmp ogt double %add10, 0xBEB0C6F7A0000000
  br i1 %cmp11, label %if.then12, label %if.else

if.then12:                                        ; preds = %land.lhs.true9, %land.lhs.true
  %15 = load ptr, ptr %e0.addr, align 8
  %16 = load ptr, ptr %out.addr, align 8
  call void @llvm.memcpy.p0.p0.i64(ptr align 8 %16, ptr align 8 %15, i64 24, i1 false)
  store i1 true, ptr %retval, align 1
  br label %return

if.else:                                          ; preds = %land.lhs.true9, %lor.lhs.false
  store i1 false, ptr %retval, align 1
  br label %return

if.end13:                                         ; preds = %if.end
  %17 = load double, ptr %dotOne, align 8
  %call14 = call noundef double @_ZSt3absd(double noundef %17)
  %cmp15 = fcmp olt double %call14, 0x3EB0C6F7A0000000
  br i1 %cmp15, label %if.then16, label %if.end17

if.then16:                                        ; preds = %if.end13
  store i1 false, ptr %retval, align 1
  br label %return

if.end17:                                         ; preds = %if.end13
  %18 = load double, ptr %dotTwo, align 8
  %19 = load double, ptr %dotOne, align 8
  %div = fdiv double %18, %19
  store double %div, ptr %t, align 8
  %20 = load double, ptr %t, align 8
  %cmp18 = fcmp ogt double %20, 1.000000e+00
  br i1 %cmp18, label %if.then21, label %lor.lhs.false19

lor.lhs.false19:                                  ; preds = %if.end17
  %21 = load double, ptr %t, align 8
  %cmp20 = fcmp olt double %21, 0.000000e+00
  br i1 %cmp20, label %if.then21, label %if.end22

if.then21:                                        ; preds = %lor.lhs.false19, %if.end17
  store i1 false, ptr %retval, align 1
  br label %return

if.end22:                                         ; preds = %lor.lhs.false19
  %22 = load ptr, ptr %e0.addr, align 8
  %23 = load double, ptr %t, align 8
  call void @_ZmlIdE10aiVector3tIT_ES1_RKS2_(ptr sret(%class.aiVector3t) align 8 %ref.tmp23, double noundef %23, ptr noundef nonnull align 8 dereferenceable(24) %seg)
  call void @_ZplIdE10aiVector3tIT_ERKS2_S4_(ptr sret(%class.aiVector3t) align 8 %ref.tmp, ptr noundef nonnull align 8 dereferenceable(24) %22, ptr noundef nonnull align 8 dereferenceable(24) %ref.tmp23)
  %24 = load ptr, ptr %out.addr, align 8
  call void @llvm.memcpy.p0.p0.i64(ptr align 8 %24, ptr align 8 %ref.tmp, i64 24, i1 false)
  store i1 true, ptr %retval, align 1
  br label %return

return:                                           ; preds = %if.end22, %if.then21, %if.then16, %if.else, %if.then12, %if.then
  %25 = load i1, ptr %retval, align 1
  ret i1 %25
}