; Function Attrs: mustprogress nofree norecurse nosync nounwind willreturn memory(argmem: readwrite) uwtable
define hidden noundef zeroext i1 @_ZN6Assimp3IFC21IntersectSegmentPlaneERK10aiVector3tIdES4_S4_S4_bRS2_(ptr nocapture noundef nonnull readonly align 8 dereferenceable(24) %p, ptr nocapture noundef nonnull readonly align 8 dereferenceable(24) %n, ptr nocapture noundef nonnull readonly align 8 dereferenceable(24) %e0, ptr nocapture noundef nonnull readonly align 8 dereferenceable(24) %e1, i1 noundef zeroext %assumeStartOnWhiteSide, ptr nocapture noundef nonnull writeonly align 8 dereferenceable(24) %out) local_unnamed_addr #0 {
entry:
  %0 = load double, ptr %p, align 8, !noalias !4
  %y2.i = getelementptr inbounds i8, ptr %p, i64 8
  %1 = load double, ptr %y2.i, align 8, !noalias !4
  %z.i = getelementptr inbounds i8, ptr %e0, i64 16
  %2 = load double, ptr %z.i, align 8, !noalias !7
  %z4.i = getelementptr inbounds i8, ptr %p, i64 16
  %3 = load double, ptr %z4.i, align 8, !noalias !4
  %4 = load <2 x double>, ptr %e0, align 8, !noalias !7
  %5 = extractelement <2 x double> %4, i64 0
  %sub.i = fsub double %5, %0
  %6 = extractelement <2 x double> %4, i64 1
  %sub3.i = fsub double %6, %1
  %7 = load <2 x double>, ptr %e1, align 8, !noalias !8
  %8 = fsub <2 x double> %7, %4
  %z.i23 = getelementptr inbounds i8, ptr %e1, i64 16
  %9 = load double, ptr %z.i23, align 8, !noalias !8
  %10 = load <2 x double>, ptr %n, align 8
  %y.i28 = getelementptr inbounds i8, ptr %n, i64 8
  %11 = load <2 x double>, ptr %y.i28, align 8
  %z.i30 = getelementptr inbounds i8, ptr %n, i64 16
  %12 = load double, ptr %z.i30, align 8
  %13 = insertelement <2 x double> poison, double %9, i64 0
  %14 = insertelement <2 x double> %13, double %2, i64 1
  %15 = insertelement <2 x double> poison, double %2, i64 0
  %16 = insertelement <2 x double> %15, double %3, i64 1
  %17 = fsub <2 x double> %14, %16
  %18 = shufflevector <2 x double> %8, <2 x double> poison, <2 x i32> <i32 1, i32 poison>
  %19 = insertelement <2 x double> %18, double %sub3.i, i64 1
  %20 = shufflevector <2 x double> %11, <2 x double> poison, <2 x i32> zeroinitializer
  %21 = fmul <2 x double> %19, %20
  %22 = shufflevector <2 x double> %10, <2 x double> poison, <2 x i32> zeroinitializer
  %23 = insertelement <2 x double> %8, double %sub.i, i64 1
  %24 = tail call <2 x double> @llvm.fmuladd.v2f64(<2 x double> %22, <2 x double> %23, <2 x double> %21)
  %25 = insertelement <2 x double> poison, double %12, i64 0
  %26 = shufflevector <2 x double> %25, <2 x double> poison, <2 x i32> zeroinitializer
  %27 = tail call <2 x double> @llvm.fmuladd.v2f64(<2 x double> %26, <2 x double> %17, <2 x double> %24)
  %28 = extractelement <2 x double> %27, i64 1
  %fneg = fneg double %28
  %29 = extractelement <2 x double> %27, i64 0
  %add = fsub double %29, %28
  %30 = tail call noundef double @llvm.fabs.f64(double %add)
  %cmp = fcmp olt double %30, 0x3EB0C6F7A0000000
  br i1 %cmp, label %return, label %if.end

if.end:                                           ; preds = %entry
  %31 = tail call noundef double @llvm.fabs.f64(double %fneg)
  %cmp4 = fcmp olt double %31, 0x3EB0C6F7A0000000
  br i1 %cmp4, label %if.then5, label %if.end13

if.then5:                                         ; preds = %if.end
  %cmp7 = fcmp uge double %add, 0x3EB0C6F7A0000000
  %cmp11 = fcmp ule double %add, 0xBEB0C6F7A0000000
  %or.cond50 = select i1 %assumeStartOnWhiteSide, i1 %cmp7, i1 %cmp11
  br i1 %or.cond50, label %return, label %if.then12

if.then12:                                        ; preds = %if.then5
  tail call void @llvm.memcpy.p0.p0.i64(ptr noundef nonnull align 8 dereferenceable(24) %out, ptr noundef nonnull align 8 dereferenceable(24) %e0, i64 24, i1 false)
  br label %return

if.end13:                                         ; preds = %if.end
  %32 = tail call noundef double @llvm.fabs.f64(double %29)
  %cmp15 = fcmp olt double %32, 0x3EB0C6F7A0000000
  br i1 %cmp15, label %return, label %if.end17

if.end17:                                         ; preds = %if.end13
  %div = fdiv double %fneg, %29
  %cmp18 = fcmp ogt double %div, 1.000000e+00
  %cmp20 = fcmp olt double %div, 0.000000e+00
  %or.cond = or i1 %cmp18, %cmp20
  br i1 %or.cond, label %return, label %if.end22

if.end22:                                         ; preds = %if.end17
  %33 = insertelement <2 x double> poison, double %div, i64 0
  %34 = shufflevector <2 x double> %33, <2 x double> poison, <2 x i32> zeroinitializer
  %35 = fmul <2 x double> %8, %34
  %36 = extractelement <2 x double> %17, i64 0
  %mul2.i = fmul double %36, %div
  %add5.i = fadd double %2, %mul2.i
  %37 = fadd <2 x double> %4, %35
  store <2 x double> %37, ptr %out, align 8
  %ref.tmp.sroa.3.0.out.sroa_idx = getelementptr inbounds i8, ptr %out, i64 16
  store double %add5.i, ptr %ref.tmp.sroa.3.0.out.sroa_idx, align 8
  br label %return

return:                                           ; preds = %if.then5, %if.end17, %if.end13, %entry, %if.end22, %if.then12
  %retval.0 = phi i1 [ true, %if.then12 ], [ true, %if.end22 ], [ false, %entry ], [ false, %if.end13 ], [ false, %if.end17 ], [ false, %if.then5 ]
  ret i1 %retval.0
}